target datalayout = "e-m:e-p270:32:32-p271:32:32-p272:64:64-i64:64-i128:128-f80:128-n8:16:32:64-S128"
target triple = "x86_64-pc-linux-gnu"

%struct.SDL_Renderer = type { ptr, ptr, ptr, ptr, ptr, ptr, ptr, ptr, ptr, ptr, ptr, ptr, ptr, ptr, ptr, ptr, ptr, ptr, ptr, ptr, ptr, ptr, ptr, ptr, ptr, ptr, ptr, ptr, ptr, ptr, i32, i8, ptr, i8, i8, i8, i64, i64, ptr, %struct.SDL_RenderViewState, %struct.SDL_FPoint, i32, i32, ptr, ptr, ptr, i32, float, float, float, float, %struct.SDL_FColor, i32, i32, i32, ptr, ptr, ptr, ptr, i32, %struct.SDL_FColor, float, %struct.SDL_Rect, %struct.SDL_Rect, i8, i8, i8, i8, ptr, i64, i64, i8, ptr, ptr, i32, ptr, i8, ptr, ptr }
%struct.SDL_RenderViewState = type { i32, i32, %struct.SDL_Rect, %struct.SDL_Rect, %struct.SDL_Rect, %struct.SDL_Rect, i8, %struct.SDL_FPoint, i32, i32, i32, %struct.SDL_FRect, %struct.SDL_FRect, %struct.SDL_FPoint, %struct.SDL_FPoint, %struct.SDL_FPoint }
%struct.SDL_FRect = type { float, float, float, float }
%struct.SDL_FPoint = type { float, float }
%struct.SDL_FColor = type { float, float, float, float }
%struct.SDL_Rect = type { i32, i32, i32, i32 }

@SDL_renderers = internal global ptr null, align 8
@.str.2 = private unnamed_addr constant [26 x i8] c"Parameter '%s' is invalid\00", align 1
@.str.5 = private unnamed_addr constant [9 x i8] c"renderer\00", align 1

; Function Attrs: nounwind uwtable
define hidden void @SDL_DestroyRenderer_REAL(ptr noundef %0) #0 {
  %2 = alloca ptr, align 8
  %3 = alloca ptr, align 8
  %4 = alloca ptr, align 8
  store ptr %0, ptr %2, align 8
  %5 = load ptr, ptr %2, align 8
  %6 = call zeroext i1 @SDL_ObjectValid(ptr noundef %5, i32 noundef 2)
  br i1 %6, label %9, label %7

7:                                                ; preds = %1
  %8 = call zeroext i1 (ptr, ...) @SDL_SetError_REAL(ptr noundef @.str.2, ptr noundef @.str.5)
  br label %47

9:                                                ; preds = %1
  %10 = load ptr, ptr %2, align 8
  %11 = getelementptr inbounds nuw %struct.SDL_Renderer, ptr %10, i32 0, i32 76
  %12 = load i8, ptr %11, align 8, !range !5, !noundef !6
  %13 = trunc i8 %12 to i1
  br i1 %13, label %16, label %14

14:                                               ; preds = %9
  %15 = load ptr, ptr %2, align 8
  call void @SDL_DestroyRendererWithoutFreeing(ptr noundef %15)
  br label %16

16:                                               ; preds = %14, %9
  call void @llvm.lifetime.start.p0(i64 8, ptr %3) #10
  %17 = load ptr, ptr @SDL_renderers, align 8
  store ptr %17, ptr %3, align 8
  call void @llvm.lifetime.start.p0(i64 8, ptr %4) #10
  store ptr null, ptr %4, align 8
  br label %18

18:                                               ; preds = %39, %16
  %19 = load ptr, ptr %3, align 8
  %20 = icmp ne ptr %19, null
  br i1 %20, label %21, label %44

21:                                               ; preds = %18
  %22 = load ptr, ptr %3, align 8
  %23 = load ptr, ptr %2, align 8
  %24 = icmp eq ptr %22, %23
  br i1 %24, label %25, label %39

25:                                               ; preds = %21
  %26 = load ptr, ptr %4, align 8
  %27 = icmp ne ptr %26, null
  br i1 %27, label %28, label %34

28:                                               ; preds = %25
  %29 = load ptr, ptr %2, align 8
  %30 = getelementptr inbounds nuw %struct.SDL_Renderer, ptr %29, i32 0, i32 78
  %31 = load ptr, ptr %30, align 8
  %32 = load ptr, ptr %4, align 8
  %33 = getelementptr inbounds nuw %struct.SDL_Renderer, ptr %32, i32 0, i32 78
  store ptr %31, ptr %33, align 8
  br label %38

34:                                               ; preds = %25
  %35 = load ptr, ptr %2, align 8
  %36 = getelementptr inbounds nuw %struct.SDL_Renderer, ptr %35, i32 0, i32 78
  %37 = load ptr, ptr %36, align 8
  store ptr %37, ptr @SDL_renderers, align 8
  br label %38

38:                                               ; preds = %34, %28
  br label %44

39:                                               ; preds = %21
  %40 = load ptr, ptr %3, align 8
  store ptr %40, ptr %4, align 8
  %41 = load ptr, ptr %3, align 8
  %42 = getelementptr inbounds nuw %struct.SDL_Renderer, ptr %41, i32 0, i32 78
  %43 = load ptr, ptr %42, align 8
  store ptr %43, ptr %3, align 8
  br label %18, !llvm.loop !7

44:                                               ; preds = %38, %18
  %45 = load ptr, ptr %2, align 8
  call void @SDL_SetObjectValid(ptr noundef %45, i32 noundef 2, i1 noundef zeroext false)
  %46 = load ptr, ptr %2, align 8
  call void @SDL_free_REAL(ptr noundef %46)
  call void @llvm.lifetime.end.p0(i64 8, ptr %4) #10
  call void @llvm.lifetime.end.p0(i64 8, ptr %3) #10
  br label %47

47:                                               ; preds = %44, %7
  ret void
}