; Function Attrs: nounwind uwtable
define hidden void @SDL_DestroyRenderer_REAL(ptr noundef %0) local_unnamed_addr #0 {
  %2 = tail call zeroext i1 @SDL_ObjectValid(ptr noundef %0, i32 noundef 2) #15
  br i1 %2, label %5, label %3

3:                                                ; preds = %1
  %4 = tail call zeroext i1 (ptr, ...) @SDL_SetError_REAL(ptr noundef nonnull @.str.2, ptr noundef nonnull @.str.5) #15
  br label %19

5:                                                ; preds = %1
  %6 = getelementptr inbounds nuw i8, ptr %0, i64 688
  %7 = load i8, ptr %6, align 8, !range !3, !noundef !4
  %8 = trunc nuw i8 %7 to i1
  br i1 %8, label %10, label %9

9:                                                ; preds = %5
  tail call void @SDL_DestroyRendererWithoutFreeing(ptr noundef nonnull %0)
  br label %10

10:                                               ; preds = %9, %5
  %.01418 = load ptr, ptr @SDL_renderers, align 8
  %.not19 = icmp eq ptr %.01418, null
  br i1 %.not19, label %.loopexit, label %.lr.ph.preheader

.lr.ph.preheader:                                 ; preds = %10
  %11 = icmp eq ptr %.01418, %0
  br i1 %11, label %.lr.ph._crit_edge, label %.lr.ph26

.lr.ph26:                                         ; preds = %.lr.ph.preheader, %.lr.ph
  %.0142125 = phi ptr [ %.014, %.lr.ph ], [ %.01418, %.lr.ph.preheader ]
  %12 = getelementptr inbounds nuw i8, ptr %.0142125, i64 704
  %.014 = load ptr, ptr %12, align 8
  %.not = icmp eq ptr %.014, null
  br i1 %.not, label %.loopexit, label %.lr.ph, !llvm.loop !5

.lr.ph:                                           ; preds = %.lr.ph26
  %13 = icmp eq ptr %.014, %0
  br i1 %13, label %.lr.ph._crit_edge, label %.lr.ph26, !llvm.loop !5

.lr.ph._crit_edge:                                ; preds = %.lr.ph, %.lr.ph.preheader
  %.020.lcssa = phi ptr [ null, %.lr.ph.preheader ], [ %.0142125, %.lr.ph ]
  %.not16 = icmp eq ptr %.020.lcssa, null
  %14 = getelementptr inbounds nuw i8, ptr %0, i64 704
  %15 = load ptr, ptr %14, align 8
  br i1 %.not16, label %18, label %16

16:                                               ; preds = %.lr.ph._crit_edge
  %17 = getelementptr inbounds nuw i8, ptr %.020.lcssa, i64 704
  store ptr %15, ptr %17, align 8
  br label %.loopexit

18:                                               ; preds = %.lr.ph._crit_edge
  store ptr %15, ptr @SDL_renderers, align 8
  br label %.loopexit

.loopexit:                                        ; preds = %.lr.ph26, %10, %16, %18
  tail call void @SDL_SetObjectValid(ptr noundef %0, i32 noundef 2, i1 noundef zeroext false) #15
  tail call void @SDL_free_REAL(ptr noundef %0) #15
  br label %19

19:                                               ; preds = %.loopexit, %3
  ret void
}